target datalayout = "e-m:e-p270:32:32-p271:32:32-p272:64:64-i64:64-i128:128-f80:128-n8:16:32:64-S128"
target triple = "x86_64-pc-linux-gnu"

%struct.FT_ListRec_ = type { ptr, ptr }
%struct.SFNT_Interface_ = type { ptr, ptr, ptr, ptr, ptr, ptr, ptr, ptr, ptr, ptr, ptr, ptr, ptr, ptr, ptr, ptr, ptr, ptr, ptr, ptr, ptr, ptr, ptr, ptr, ptr, ptr, ptr, ptr, ptr, ptr, ptr, ptr, ptr, ptr, ptr, ptr, ptr, ptr, ptr, ptr, ptr, ptr, ptr, ptr, ptr, ptr, ptr, ptr }
%struct.FT_FaceRec_ = type { i64, i64, i64, i64, i64, ptr, ptr, i32, ptr, i32, ptr, %struct.FT_Generic_, %struct.FT_BBox_, i16, i16, i16, i16, i16, i16, i16, i16, ptr, ptr, ptr, ptr, ptr, ptr, %struct.FT_ListRec_, %struct.FT_Generic_, ptr, ptr }
%struct.FT_BBox_ = type { i64, i64, i64, i64 }
%struct.FT_Generic_ = type { ptr, ptr }
%struct.TT_FaceRec_ = type { %struct.FT_FaceRec_, %struct.TTC_HeaderRec_, i64, i16, ptr, %struct.TT_Header_, %struct.TT_HoriHeader_, %struct.TT_MaxProfile_, i8, %struct.TT_VertHeader_, i16, %struct.TT_NameTableRec_, %struct.TT_OS2_, %struct.TT_Postscript_, ptr, i64, ptr, ptr, ptr, ptr, ptr, ptr, ptr, ptr, ptr, ptr, ptr, ptr, %struct.TT_Gasp_, %struct.TT_PCLT_, i64, ptr, %struct.TT_Post_NamesRec_, %struct.FT_Palette_Data_, i16, ptr, i8, %struct.FT_Color_, i64, ptr, i64, ptr, i64, ptr, ptr, %struct.FT_Generic_, ptr, i64, i64, i8, i8, ptr, i32, ptr, i32, i32, ptr, i64, i64, i64, ptr, ptr, i64, i32, i64, ptr, ptr, i64, i32, i32, ptr, ptr, i64, i32, i32, i32, %struct.TT_BDFRec_, i64, i64, i64, i64, ptr, ptr, ptr }
%struct.TTC_HeaderRec_ = type { i64, i64, i64, ptr }
%struct.TT_Header_ = type { i64, i64, i64, i64, i16, i16, [2 x i64], [2 x i64], i16, i16, i16, i16, i16, i16, i16, i16, i16 }
%struct.TT_HoriHeader_ = type { i64, i16, i16, i16, i16, i16, i16, i16, i16, i16, i16, [4 x i16], i16, i16, ptr, ptr }
%struct.TT_MaxProfile_ = type { i64, i16, i16, i16, i16, i16, i16, i16, i16, i16, i16, i16, i16, i16, i16 }
%struct.TT_VertHeader_ = type { i64, i16, i16, i16, i16, i16, i16, i16, i16, i16, i16, [4 x i16], i16, i16, ptr, ptr }
%struct.TT_NameTableRec_ = type { i16, i32, i32, ptr, i32, ptr, ptr }
%struct.TT_OS2_ = type { i16, i16, i16, i16, i16, i16, i16, i16, i16, i16, i16, i16, i16, i16, i16, i16, [10 x i8], i64, i64, i64, i64, [4 x i8], i16, i16, i16, i16, i16, i16, i16, i16, i64, i64, i16, i16, i16, i16, i16, i16, i16 }
%struct.TT_Postscript_ = type { i64, i64, i16, i16, i64, i64, i64, i64, i64 }
%struct.TT_Gasp_ = type { i16, i16, ptr }
%struct.TT_PCLT_ = type { i64, i64, i16, i16, i16, i16, i16, i16, [16 x i8], [8 x i8], [6 x i8], i8, i8, i8, i8 }
%struct.TT_Post_NamesRec_ = type { i8, i16, i16, ptr, ptr }
%struct.FT_Palette_Data_ = type { i16, ptr, ptr, i16, ptr }
%struct.FT_Color_ = type { i8, i8, i8, i8 }
%struct.TT_BDFRec_ = type { ptr, ptr, ptr, i64, i32, i8 }

; Function Attrs: nounwind uwtable
define internal void @TT_Get_VMetrics(ptr noundef %0, i32 noundef %1, i64 noundef %2, ptr noundef %3, ptr noundef %4) #0 {
  %6 = alloca ptr, align 8
  %7 = alloca i32, align 4
  %8 = alloca i64, align 8
  %9 = alloca ptr, align 8
  %10 = alloca ptr, align 8
  store ptr %0, ptr %6, align 8
  store i32 %1, ptr %7, align 4
  store i64 %2, ptr %8, align 8
  store ptr %3, ptr %9, align 8
  store ptr %4, ptr %10, align 8
  %11 = load ptr, ptr %6, align 8
  %12 = getelementptr inbounds %struct.TT_FaceRec_, ptr %11, i32 0, i32 8
  %13 = load i8, ptr %12, align 8
  %14 = icmp ne i8 %13, 0
  br i1 %14, label %15, label %25

15:                                               ; preds = %5
  %16 = load ptr, ptr %6, align 8
  %17 = getelementptr inbounds %struct.TT_FaceRec_, ptr %16, i32 0, i32 22
  %18 = load ptr, ptr %17, align 8
  %19 = getelementptr inbounds %struct.SFNT_Interface_, ptr %18, i32 0, i32 42
  %20 = load ptr, ptr %19, align 8
  %21 = load ptr, ptr %6, align 8
  %22 = load i32, ptr %7, align 4
  %23 = load ptr, ptr %9, align 8
  %24 = load ptr, ptr %10, align 8
  call void %20(ptr noundef %21, i8 noundef zeroext 1, i32 noundef %22, ptr noundef %23, ptr noundef %24)
  br label %135

25:                                               ; preds = %5
  %26 = load ptr, ptr %6, align 8
  %27 = getelementptr inbounds %struct.TT_FaceRec_, ptr %26, i32 0, i32 12
  %28 = getelementptr inbounds %struct.TT_OS2_, ptr %27, i32 0, i32 0
  %29 = load i16, ptr %28, align 8
  %30 = zext i16 %29 to i32
  %31 = icmp ne i32 %30, 65535
  br i1 %31, label %32, label %83

32:                                               ; preds = %25
  %33 = load ptr, ptr %6, align 8
  %34 = getelementptr inbounds %struct.TT_FaceRec_, ptr %33, i32 0, i32 12
  %35 = getelementptr inbounds %struct.TT_OS2_, ptr %34, i32 0, i32 25
  %36 = load i16, ptr %35, align 2
  %37 = sext i16 %36 to i64
  %38 = load i64, ptr %8, align 8
  %39 = sub nsw i64 %37, %38
  %40 = trunc i64 %39 to i16
  %41 = load ptr, ptr %9, align 8
  store i16 %40, ptr %41, align 2
  %42 = load ptr, ptr %6, align 8
  %43 = getelementptr inbounds %struct.TT_FaceRec_, ptr %42, i32 0, i32 12
  %44 = getelementptr inbounds %struct.TT_OS2_, ptr %43, i32 0, i32 25
  %45 = load i16, ptr %44, align 2
  %46 = sext i16 %45 to i32
  %47 = load ptr, ptr %6, align 8
  %48 = getelementptr inbounds %struct.TT_FaceRec_, ptr %47, i32 0, i32 12
  %49 = getelementptr inbounds %struct.TT_OS2_, ptr %48, i32 0, i32 26
  %50 = load i16, ptr %49, align 4
  %51 = sext i16 %50 to i32
  %52 = sub nsw i32 %46, %51
  %53 = icmp slt i32 %52, 0
  br i1 %53, label %54, label %67

54:                                               ; preds = %32
  %55 = load ptr, ptr %6, align 8
  %56 = getelementptr inbounds %struct.TT_FaceRec_, ptr %55, i32 0, i32 12
  %57 = getelementptr inbounds %struct.TT_OS2_, ptr %56, i32 0, i32 25
  %58 = load i16, ptr %57, align 2
  %59 = sext i16 %58 to i32
  %60 = load ptr, ptr %6, align 8
  %61 = getelementptr inbounds %struct.TT_FaceRec_, ptr %60, i32 0, i32 12
  %62 = getelementptr inbounds %struct.TT_OS2_, ptr %61, i32 0, i32 26
  %63 = load i16, ptr %62, align 4
  %64 = sext i16 %63 to i32
  %65 = sub nsw i32 %59, %64
  %66 = sub nsw i32 0, %65
  br label %79

67:                                               ; preds = %32
  %68 = load ptr, ptr %6, align 8
  %69 = getelementptr inbounds %struct.TT_FaceRec_, ptr %68, i32 0, i32 12
  %70 = getelementptr inbounds %struct.TT_OS2_, ptr %69, i32 0, i32 25
  %71 = load i16, ptr %70, align 2
  %72 = sext i16 %71 to i32
  %73 = load ptr, ptr %6, align 8
  %74 = getelementptr inbounds %struct.TT_FaceRec_, ptr %73, i32 0, i32 12
  %75 = getelementptr inbounds %struct.TT_OS2_, ptr %74, i32 0, i32 26
  %76 = load i16, ptr %75, align 4
  %77 = sext i16 %76 to i32
  %78 = sub nsw i32 %72, %77
  br label %79

79:                                               ; preds = %67, %54
  %80 = phi i32 [ %66, %54 ], [ %78, %67 ]
  %81 = trunc i32 %80 to i16
  %82 = load ptr, ptr %10, align 8
  store i16 %81, ptr %82, align 2
  br label %134

83:                                               ; preds = %25
  %84 = load ptr, ptr %6, align 8
  %85 = getelementptr inbounds %struct.TT_FaceRec_, ptr %84, i32 0, i32 6
  %86 = getelementptr inbounds %struct.TT_HoriHeader_, ptr %85, i32 0, i32 1
  %87 = load i16, ptr %86, align 8
  %88 = sext i16 %87 to i64
  %89 = load i64, ptr %8, align 8
  %90 = sub nsw i64 %88, %89
  %91 = trunc i64 %90 to i16
  %92 = load ptr, ptr %9, align 8
  store i16 %91, ptr %92, align 2
  %93 = load ptr, ptr %6, align 8
  %94 = getelementptr inbounds %struct.TT_FaceRec_, ptr %93, i32 0, i32 6
  %95 = getelementptr inbounds %struct.TT_HoriHeader_, ptr %94, i32 0, i32 1
  %96 = load i16, ptr %95, align 8
  %97 = sext i16 %96 to i32
  %98 = load ptr, ptr %6, align 8
  %99 = getelementptr inbounds %struct.TT_FaceRec_, ptr %98, i32 0, i32 6
  %100 = getelementptr inbounds %struct.TT_HoriHeader_, ptr %99, i32 0, i32 2
  %101 = load i16, ptr %100, align 2
  %102 = sext i16 %101 to i32
  %103 = sub nsw i32 %97, %102
  %104 = icmp slt i32 %103, 0
  br i1 %104, label %105, label %118

105:                                              ; preds = %83
  %106 = load ptr, ptr %6, align 8
  %107 = getelementptr inbounds %struct.TT_FaceRec_, ptr %106, i32 0, i32 6
  %108 = getelementptr inbounds %struct.TT_HoriHeader_, ptr %107, i32 0, i32 1
  %109 = load i16, ptr %108, align 8
  %110 = sext i16 %109 to i32
  %111 = load ptr, ptr %6, align 8
  %112 = getelementptr inbounds %struct.TT_FaceRec_, ptr %111, i32 0, i32 6
  %113 = getelementptr inbounds %struct.TT_HoriHeader_, ptr %112, i32 0, i32 2
  %114 = load i16, ptr %113, align 2
  %115 = sext i16 %114 to i32
  %116 = sub nsw i32 %110, %115
  %117 = sub nsw i32 0, %116
  br label %130

118:                                              ; preds = %83
  %119 = load ptr, ptr %6, align 8
  %120 = getelementptr inbounds %struct.TT_FaceRec_, ptr %119, i32 0, i32 6
  %121 = getelementptr inbounds %struct.TT_HoriHeader_, ptr %120, i32 0, i32 1
  %122 = load i16, ptr %121, align 8
  %123 = sext i16 %122 to i32
  %124 = load ptr, ptr %6, align 8
  %125 = getelementptr inbounds %struct.TT_FaceRec_, ptr %124, i32 0, i32 6
  %126 = getelementptr inbounds %struct.TT_HoriHeader_, ptr %125, i32 0, i32 2
  %127 = load i16, ptr %126, align 2
  %128 = sext i16 %127 to i32
  %129 = sub nsw i32 %123, %128
  br label %130

130:                                              ; preds = %118, %105
  %131 = phi i32 [ %117, %105 ], [ %129, %118 ]
  %132 = trunc i32 %131 to i16
  %133 = load ptr, ptr %10, align 8
  store i16 %132, ptr %133, align 2
  br label %134

134:                                              ; preds = %130, %79
  br label %135

135:                                              ; preds = %134, %15
  br label %136

136:                                              ; preds = %135
  br label %137

137:                                              ; preds = %136
  br label %138

138:                                              ; preds = %137
  br label %139

139:                                              ; preds = %138
  ret void
}