; Function Attrs: nounwind uwtable
define internal fastcc void @TT_Get_VMetrics(ptr noundef %0, i32 noundef %1, i64 noundef %2, ptr noundef %3, ptr noundef %4) unnamed_addr #2 {
  %6 = getelementptr inbounds i8, ptr %0, i64 496
  %7 = load i8, ptr %6, align 8
  %.not = icmp eq i8 %7, 0
  br i1 %.not, label %13, label %8

8:                                                ; preds = %5
  %9 = getelementptr inbounds i8, ptr %0, i64 880
  %10 = load ptr, ptr %9, align 8
  %11 = getelementptr inbounds i8, ptr %10, i64 336
  %12 = load ptr, ptr %11, align 8
  tail call void %12(ptr noundef nonnull %0, i8 noundef zeroext 1, i32 noundef %1, ptr noundef %3, ptr noundef %4) #22
  br label %41

13:                                               ; preds = %5
  %14 = getelementptr inbounds i8, ptr %0, i64 616
  %15 = load i16, ptr %14, align 8
  %.not28 = icmp eq i16 %15, -1
  %16 = trunc i64 %2 to i16
  br i1 %.not28, label %29, label %17

17:                                               ; preds = %13
  %18 = getelementptr inbounds i8, ptr %0, i64 706
  %19 = load i16, ptr %18, align 2
  %20 = sub i16 %19, %16
  store i16 %20, ptr %3, align 2
  %21 = load i16, ptr %18, align 2
  %22 = sext i16 %21 to i32
  %23 = getelementptr inbounds i8, ptr %0, i64 708
  %24 = load i16, ptr %23, align 4
  %25 = sext i16 %24 to i32
  %26 = sub nsw i32 %22, %25
  %27 = tail call i32 @llvm.abs.i32(i32 %26, i1 true)
  %28 = trunc nuw i32 %27 to i16
  store i16 %28, ptr %4, align 2
  br label %41

29:                                               ; preds = %13
  %30 = getelementptr inbounds i8, ptr %0, i64 408
  %31 = load i16, ptr %30, align 8
  %32 = sub i16 %31, %16
  store i16 %32, ptr %3, align 2
  %33 = load i16, ptr %30, align 8
  %34 = sext i16 %33 to i32
  %35 = getelementptr inbounds i8, ptr %0, i64 410
  %36 = load i16, ptr %35, align 2
  %37 = sext i16 %36 to i32
  %38 = sub nsw i32 %34, %37
  %39 = tail call i32 @llvm.abs.i32(i32 %38, i1 true)
  %40 = trunc nuw i32 %39 to i16
  store i16 %40, ptr %4, align 2
  br label %41

41:                                               ; preds = %17, %29, %8
  ret void
}